; Function Attrs: nounwind uwtable
define void @png_write_image(ptr noalias noundef %0, ptr nocapture noundef readonly %1) local_unnamed_addr #0 {
  %3 = icmp eq ptr %0, null
  br i1 %3, label %.loopexit, label %4

4:                                                ; preds = %2
  %5 = tail call i32 @png_set_interlace_handling(ptr noundef nonnull %0) #15
  %6 = icmp sgt i32 %5, 0
  br i1 %6, label %.preheader.lr.ph, label %.loopexit

.preheader.lr.ph:                                 ; preds = %4
  %7 = getelementptr inbounds i8, ptr %0, i64 508
  %8 = load i32, ptr %7, align 4
  %.not = icmp eq i32 %8, 0
  br i1 %.not, label %.loopexit, label %.preheader

.preheader:                                       ; preds = %.preheader.lr.ph, %._crit_edge
  %9 = phi i32 [ %15, %._crit_edge ], [ 1, %.preheader.lr.ph ]
  %.01216 = phi i32 [ %16, %._crit_edge ], [ 0, %.preheader.lr.ph ]
  %.not17 = icmp eq i32 %9, 0
  br i1 %.not17, label %._crit_edge, label %.lr.ph

.lr.ph:                                           ; preds = %.preheader, %.lr.ph
  %.015 = phi ptr [ %12, %.lr.ph ], [ %1, %.preheader ]
  %.01114 = phi i32 [ %11, %.lr.ph ], [ 0, %.preheader ]
  %10 = load ptr, ptr %.015, align 8
  tail call void @png_write_row(ptr noundef nonnull %0, ptr noundef %10)
  %11 = add nuw i32 %.01114, 1
  %12 = getelementptr inbounds i8, ptr %.015, i64 8
  %13 = load i32, ptr %7, align 4
  %14 = icmp ult i32 %11, %13
  br i1 %14, label %.lr.ph, label %._crit_edge, !llvm.loop !28

._crit_edge:                                      ; preds = %.lr.ph, %.preheader
  %15 = phi i32 [ 0, %.preheader ], [ %13, %.lr.ph ]
  %16 = add nuw nsw i32 %.01216, 1
  %exitcond.not = icmp eq i32 %16, %5
  br i1 %exitcond.not, label %.loopexit, label %.preheader, !llvm.loop !29

.loopexit:                                        ; preds = %._crit_edge, %.preheader.lr.ph, %4, %2
  ret void
}